; Function Attrs: nounwind uwtable
define dso_local range(i32 0, 2) i32 @luaL_callmeta(ptr noundef %0, i32 noundef %1, ptr noundef %2) local_unnamed_addr #0 {
  %4 = add i32 %1, -1
  %or.cond = icmp ult i32 %4, -10000
  br i1 %or.cond, label %9, label %5

5:                                                ; preds = %3
  %6 = tail call i32 @lua_gettop(ptr noundef %0) #17
  %7 = add nsw i32 %1, 1
  %8 = add i32 %7, %6
  br label %9

9:                                                ; preds = %3, %5
  %10 = phi i32 [ %8, %5 ], [ %1, %3 ]
  %11 = tail call i32 @lua_getmetatable(ptr noundef %0, i32 noundef %10) #17
  %.not.i = icmp eq i32 %11, 0
  br i1 %.not.i, label %luaL_getmetafield.exit.thread, label %12

12:                                               ; preds = %9
  tail call void @lua_pushstring(ptr noundef %0, ptr noundef %2) #17
  tail call void @lua_rawget(ptr noundef %0, i32 noundef -2) #17
  %13 = tail call i32 @lua_type(ptr noundef %0, i32 noundef -1) #17
  %14 = icmp eq i32 %13, 0
  br i1 %14, label %15, label %16

15:                                               ; preds = %12
  tail call void @lua_settop(ptr noundef %0, i32 noundef -3) #17
  br label %luaL_getmetafield.exit.thread

16:                                               ; preds = %12
  tail call void @lua_remove(ptr noundef %0, i32 noundef -2) #17
  tail call void @lua_pushvalue(ptr noundef %0, i32 noundef %10) #17
  tail call void @lua_call(ptr noundef %0, i32 noundef 1, i32 noundef 1) #17
  br label %luaL_getmetafield.exit.thread

luaL_getmetafield.exit.thread:                    ; preds = %9, %15, %16
  %.0 = phi i32 [ 1, %16 ], [ 0, %15 ], [ 0, %9 ]
  ret i32 %.0
}